target datalayout = "e-m:e-p270:32:32-p271:32:32-p272:64:64-i64:64-i128:128-f80:128-n8:16:32:64-S128"
target triple = "x86_64-pc-linux-gnu"

%struct.cl_cvd = type { ptr, i32, i32, i32, ptr, ptr, ptr, i32 }

; Function Attrs: nounwind uwtable
define void @cl_cvdfree(ptr noundef %0) #0 {
  %2 = alloca ptr, align 8
  store ptr %0, ptr %2, align 8, !tbaa !8
  %3 = load ptr, ptr %2, align 8, !tbaa !8
  %4 = getelementptr inbounds nuw %struct.cl_cvd, ptr %3, i32 0, i32 0
  %5 = load ptr, ptr %4, align 8, !tbaa !10
  call void @free(ptr noundef %5) #11
  %6 = load ptr, ptr %2, align 8, !tbaa !8
  %7 = getelementptr inbounds nuw %struct.cl_cvd, ptr %6, i32 0, i32 4
  %8 = load ptr, ptr %7, align 8, !tbaa !16
  call void @free(ptr noundef %8) #11
  %9 = load ptr, ptr %2, align 8, !tbaa !8
  %10 = getelementptr inbounds nuw %struct.cl_cvd, ptr %9, i32 0, i32 5
  %11 = load ptr, ptr %10, align 8, !tbaa !17
  call void @free(ptr noundef %11) #11
  %12 = load ptr, ptr %2, align 8, !tbaa !8
  %13 = getelementptr inbounds nuw %struct.cl_cvd, ptr %12, i32 0, i32 6
  %14 = load ptr, ptr %13, align 8, !tbaa !18
  call void @free(ptr noundef %14) #11
  %15 = load ptr, ptr %2, align 8, !tbaa !8
  call void @free(ptr noundef %15) #11
  ret void
}