; Function Attrs: mustprogress nounwind willreturn uwtable
define void @cl_cvdfree(ptr noundef captures(none) %0) local_unnamed_addr #7 {
  %2 = load ptr, ptr %0, align 8, !tbaa !3
  tail call void @free(ptr noundef %2) #19
  %3 = getelementptr inbounds nuw i8, ptr %0, i64 24
  %4 = load ptr, ptr %3, align 8, !tbaa !13
  tail call void @free(ptr noundef %4) #19
  %5 = getelementptr inbounds nuw i8, ptr %0, i64 32
  %6 = load ptr, ptr %5, align 8, !tbaa !14
  tail call void @free(ptr noundef %6) #19
  %7 = getelementptr inbounds nuw i8, ptr %0, i64 40
  %8 = load ptr, ptr %7, align 8, !tbaa !15
  tail call void @free(ptr noundef %8) #19
  tail call void @free(ptr noundef %0) #19
  ret void
}